; Function Attrs: nounwind uwtable
define ptr @l_Lake_GitRepo_branchExists(ptr noundef %0, ptr noundef %1, ptr noundef %2) local_unnamed_addr #0 {
  %4 = load ptr, ptr @l_Lake_GitRepo_branchExists___closed__1, align 8, !tbaa !12
  %5 = tail call ptr @lean_string_append(ptr noundef %4, ptr noundef %0) #3
  %6 = load ptr, ptr @l_Lake_GitRepo_getHeadRevision___lambda__1___closed__1, align 8, !tbaa !12
  %7 = tail call ptr @lean_string_append(ptr noundef %5, ptr noundef %6) #3
  tail call void @lean_inc_heartbeat() #3
  %8 = tail call noalias ptr @mi_malloc_small(i64 noundef 24) #3
  %9 = icmp eq ptr %8, null
  br i1 %9, label %10, label %lean_alloc_ctor.exit

10:                                               ; preds = %3
  tail call void @lean_internal_panic_out_of_memory() #4
  unreachable

lean_alloc_ctor.exit:                             ; preds = %3
  %11 = getelementptr inbounds nuw i8, ptr %8, i64 4
  store i32 1, ptr %8, align 4, !tbaa !8
  store i32 16908312, ptr %11, align 4
  %12 = getelementptr inbounds nuw i8, ptr %8, i64 8
  store ptr %7, ptr %12, align 8, !tbaa !12
  %13 = getelementptr inbounds nuw i8, ptr %8, i64 16
  store ptr inttoptr (i64 1 to ptr), ptr %13, align 8, !tbaa !12
  %14 = load ptr, ptr @l_Lake_GitRepo_resolveRevision_x3f___closed__2, align 8, !tbaa !12
  tail call void @lean_inc_heartbeat() #3
  %15 = tail call noalias ptr @mi_malloc_small(i64 noundef 24) #3
  %16 = icmp eq ptr %15, null
  br i1 %16, label %17, label %lean_alloc_ctor.exit35

17:                                               ; preds = %lean_alloc_ctor.exit
  tail call void @lean_internal_panic_out_of_memory() #4
  unreachable

lean_alloc_ctor.exit35:                           ; preds = %lean_alloc_ctor.exit
  %18 = getelementptr inbounds nuw i8, ptr %15, i64 4
  store i32 1, ptr %15, align 4, !tbaa !8
  store i32 16908312, ptr %18, align 4
  %19 = getelementptr inbounds nuw i8, ptr %15, i64 8
  store ptr %14, ptr %19, align 8, !tbaa !12
  %20 = getelementptr inbounds nuw i8, ptr %15, i64 16
  store ptr %8, ptr %20, align 8, !tbaa !12
  %21 = load ptr, ptr @l_Lake_GitRepo_branchExists___closed__2, align 8, !tbaa !12
  tail call void @lean_inc_heartbeat() #3
  %22 = tail call noalias ptr @mi_malloc_small(i64 noundef 24) #3
  %23 = icmp eq ptr %22, null
  br i1 %23, label %24, label %lean_alloc_ctor.exit36

24:                                               ; preds = %lean_alloc_ctor.exit35
  tail call void @lean_internal_panic_out_of_memory() #4
  unreachable

lean_alloc_ctor.exit36:                           ; preds = %lean_alloc_ctor.exit35
  %25 = getelementptr inbounds nuw i8, ptr %22, i64 4
  store i32 1, ptr %22, align 4, !tbaa !8
  store i32 16908312, ptr %25, align 4
  %26 = getelementptr inbounds nuw i8, ptr %22, i64 8
  store ptr %21, ptr %26, align 8, !tbaa !12
  %27 = getelementptr inbounds nuw i8, ptr %22, i64 16
  store ptr %15, ptr %27, align 8, !tbaa !12
  %28 = tail call ptr @lean_array_mk(ptr noundef nonnull %22) #3
  tail call void @lean_inc_heartbeat() #3
  %29 = tail call noalias ptr @mi_malloc_small(i64 noundef 16) #3
  %30 = icmp eq ptr %29, null
  br i1 %30, label %31, label %lean_alloc_ctor.exit37

31:                                               ; preds = %lean_alloc_ctor.exit36
  tail call void @lean_internal_panic_out_of_memory() #4
  unreachable

lean_alloc_ctor.exit37:                           ; preds = %lean_alloc_ctor.exit36
  %32 = getelementptr inbounds nuw i8, ptr %29, i64 4
  store i32 1, ptr %29, align 4, !tbaa !8
  store i32 16842768, ptr %32, align 4
  %33 = getelementptr inbounds nuw i8, ptr %29, i64 8
  store ptr %1, ptr %33, align 8, !tbaa !12
  %34 = load ptr, ptr @l_Lake_GitRepo_captureGit_x3f___closed__1, align 8, !tbaa !12
  %35 = load ptr, ptr @l_Lake_Git_filterUrl_x3f___closed__1, align 8, !tbaa !12
  %36 = load ptr, ptr @l_Lake_GitRepo_captureGit_x3f___closed__2, align 8, !tbaa !12
  tail call void @lean_inc_heartbeat() #3
  %37 = tail call noalias ptr @mi_malloc_small(i64 noundef 56) #3
  %38 = icmp eq ptr %37, null
  br i1 %38, label %39, label %lean_alloc_ctor.exit38

39:                                               ; preds = %lean_alloc_ctor.exit37
  tail call void @lean_internal_panic_out_of_memory() #4
  unreachable

lean_alloc_ctor.exit38:                           ; preds = %lean_alloc_ctor.exit37
  %40 = getelementptr inbounds nuw i8, ptr %37, i64 4
  %41 = getelementptr inbounds nuw i8, ptr %37, i64 48
  store i64 1, ptr %41, align 8, !tbaa !4
  store i32 1, ptr %37, align 4, !tbaa !8
  store i32 327736, ptr %40, align 4
  %42 = getelementptr inbounds nuw i8, ptr %37, i64 8
  store ptr %34, ptr %42, align 8, !tbaa !12
  %43 = getelementptr inbounds nuw i8, ptr %37, i64 16
  store ptr %35, ptr %43, align 8, !tbaa !12
  %44 = getelementptr inbounds nuw i8, ptr %37, i64 24
  store ptr %28, ptr %44, align 8, !tbaa !12
  %45 = getelementptr inbounds nuw i8, ptr %37, i64 32
  store ptr %29, ptr %45, align 8, !tbaa !12
  %46 = getelementptr inbounds nuw i8, ptr %37, i64 40
  store ptr %36, ptr %46, align 8, !tbaa !12
  %47 = tail call ptr @l_Lake_testProc(ptr noundef nonnull %37, ptr noundef %2) #3
  ret ptr %47
}